; Function Attrs: mustprogress nounwind uwtable
define dso_local noundef double @_ZN4absl15random_internal17BetaIncompleteInvEddd(double noundef %0, double noundef %1, double noundef %2) local_unnamed_addr #7 {
  %4 = fcmp olt double %0, 0.000000e+00
  %5 = fcmp olt double %1, 0.000000e+00
  %or.cond = or i1 %4, %5
  %6 = fcmp olt double %2, 0.000000e+00
  %or.cond3 = or i1 %or.cond, %6
  %7 = fcmp ogt double %2, 1.000000e+00
  %or.cond5 = or i1 %7, %or.cond3
  br i1 %or.cond5, label %19, label %8

8:                                                ; preds = %3
  %9 = fcmp oeq double %2, 0.000000e+00
  %10 = fcmp oeq double %2, 1.000000e+00
  %or.cond7 = or i1 %9, %10
  br i1 %or.cond7, label %19, label %11

11:                                               ; preds = %8
  %12 = tail call double @lgamma(double noundef %0) #15
  %13 = tail call double @lgamma(double noundef %1) #15
  %14 = fadd double %12, %13
  %15 = fadd double %0, %1
  %16 = tail call double @lgamma(double noundef %15) #15
  %17 = fsub double %14, %16
  %18 = tail call fastcc noundef double @_ZN4absl15random_internal12_GLOBAL__N_121BetaIncompleteInvImplEdddd(double noundef %0, double noundef %1, double noundef %17, double noundef %2)
  br label %19

19:                                               ; preds = %3, %8, %11
  %.0 = phi double [ %18, %11 ], [ %2, %8 ], [ 0x7FF0000000000000, %3 ]
  ret double %.0
}